; ModuleID = '44/866.c'
source_filename = "44/866.c"
target datalayout = "e-m:e-p270:32:32-p271:32:32-p272:64:64-i64:64-f80:128-n8:16:32:64-S128"
target triple = "x86_64-pc-linux-gnu"

@.str = private unnamed_addr constant [3 x i8] c"%d\00", align 1
@.str.1 = private unnamed_addr constant [4 x i8] c"%d\0A\00", align 1

; Function Attrs: noinline nounwind uwtable
define dso_local i32 @reverse(i32 %0) #0 {
  %2 = alloca i32, align 4
  %3 = alloca i32, align 4
  %4 = alloca i32, align 4
  %5 = alloca i32, align 4
  %6 = alloca i32, align 4
  %7 = alloca [50 x i32], align 16
  store i32 %0, i32* %2, align 4
  %8 = load i32, i32* %2, align 4
  %9 = icmp eq i32 %8, 0
  br i1 %9, label %10, label %11

10:                                               ; preds = %1
  store i32 0, i32* %3, align 4
  br label %73

11:                                               ; preds = %1
  %12 = load i32, i32* %2, align 4
  store i32 %12, i32* %6, align 4
  %13 = load i32, i32* %2, align 4
  %14 = sitofp i32 %13 to double
  %15 = call double @llvm.fabs.f64(double %14)
  %16 = fptosi double %15 to i32
  store i32 %16, i32* %2, align 4
  %17 = load i32, i32* %2, align 4
  %18 = sitofp i32 %17 to double
  %19 = call double @log10(double %18) #4
  %20 = fptosi double %19 to i32
  store i32 %20, i32* %4, align 4
  %21 = load i32, i32* %4, align 4
  store i32 %21, i32* %5, align 4
  br label %22

22:                                               ; preds = %41, %11
  %23 = load i32, i32* %5, align 4
  %24 = icmp sge i32 %23, 0
  br i1 %24, label %25, label %44

25:                                               ; preds = %22
  %26 = load i32, i32* %2, align 4
  %27 = load i32, i32* %5, align 4
  %28 = sitofp i32 %27 to double
  %29 = call double @pow(double 1.000000e+01, double %28) #4
  %30 = fptosi double %29 to i32
  %31 = sdiv i32 %26, %30
  %32 = load i32, i32* %5, align 4
  %33 = sext i32 %32 to i64
  %34 = getelementptr inbounds [50 x i32], [50 x i32]* %7, i64 0, i64 %33
  store i32 %31, i32* %34, align 4
  %35 = load i32, i32* %2, align 4
  %36 = load i32, i32* %5, align 4
  %37 = sitofp i32 %36 to double
  %38 = call double @pow(double 1.000000e+01, double %37) #4
  %39 = fptosi double %38 to i32
  %40 = srem i32 %35, %39
  store i32 %40, i32* %2, align 4
  br label %41

41:                                               ; preds = %25
  %42 = load i32, i32* %5, align 4
  %43 = add nsw i32 %42, -1
  store i32 %43, i32* %5, align 4
  br label %22

44:                                               ; preds = %22
  store i32 0, i32* %5, align 4
  store i32 0, i32* %3, align 4
  br label %45

45:                                               ; preds = %63, %44
  %46 = load i32, i32* %5, align 4
  %47 = load i32, i32* %4, align 4
  %48 = icmp sle i32 %46, %47
  br i1 %48, label %49, label %66

49:                                               ; preds = %45
  %50 = load i32, i32* %3, align 4
  %51 = load i32, i32* %5, align 4
  %52 = sext i32 %51 to i64
  %53 = getelementptr inbounds [50 x i32], [50 x i32]* %7, i64 0, i64 %52
  %54 = load i32, i32* %53, align 4
  %55 = load i32, i32* %4, align 4
  %56 = load i32, i32* %5, align 4
  %57 = sub nsw i32 %55, %56
  %58 = sitofp i32 %57 to double
  %59 = call double @pow(double 1.000000e+01, double %58) #4
  %60 = fptosi double %59 to i32
  %61 = mul nsw i32 %54, %60
  %62 = add nsw i32 %50, %61
  store i32 %62, i32* %3, align 4
  br label %63

63:                                               ; preds = %49
  %64 = load i32, i32* %5, align 4
  %65 = add nsw i32 %64, 1
  store i32 %65, i32* %5, align 4
  br label %45

66:                                               ; preds = %45
  %67 = load i32, i32* %6, align 4
  %68 = icmp slt i32 %67, 0
  br i1 %68, label %69, label %72

69:                                               ; preds = %66
  %70 = load i32, i32* %3, align 4
  %71 = mul nsw i32 -1, %70
  store i32 %71, i32* %3, align 4
  br label %72

72:                                               ; preds = %69, %66
  br label %73

73:                                               ; preds = %72, %10
  %74 = load i32, i32* %3, align 4
  ret i32 %74
}

; Function Attrs: nounwind readnone speculatable willreturn
declare double @llvm.fabs.f64(double) #1

; Function Attrs: nounwind
declare dso_local double @log10(double) #2

; Function Attrs: nounwind
declare dso_local double @pow(double, double) #2

; Function Attrs: noinline nounwind uwtable
define dso_local void @main() #0 {
  %1 = alloca i32, align 4
  %2 = alloca i32, align 4
  %3 = alloca [6 x i32], align 16
  store i32 0, i32* %2, align 4
  br label %4

4:                                                ; preds = %14, %0
  %5 = load i32, i32* %2, align 4
  %6 = icmp slt i32 %5, 6
  br i1 %6, label %7, label %17

7:                                                ; preds = %4
  %8 = call i32 (i8*, ...) @__isoc99_scanf(i8* getelementptr inbounds ([3 x i8], [3 x i8]* @.str, i64 0, i64 0), i32* %1)
  %9 = load i32, i32* %1, align 4
  %10 = call i32 @reverse(i32 %9)
  %11 = load i32, i32* %2, align 4
  %12 = sext i32 %11 to i64
  %13 = getelementptr inbounds [6 x i32], [6 x i32]* %3, i64 0, i64 %12
  store i32 %10, i32* %13, align 4
  br label %14

14:                                               ; preds = %7
  %15 = load i32, i32* %2, align 4
  %16 = add nsw i32 %15, 1
  store i32 %16, i32* %2, align 4
  br label %4

17:                                               ; preds = %4
  store i32 0, i32* %2, align 4
  br label %18

18:                                               ; preds = %27, %17
  %19 = load i32, i32* %2, align 4
  %20 = icmp slt i32 %19, 5
  br i1 %20, label %21, label %30

21:                                               ; preds = %18
  %22 = load i32, i32* %2, align 4
  %23 = sext i32 %22 to i64
  %24 = getelementptr inbounds [6 x i32], [6 x i32]* %3, i64 0, i64 %23
  %25 = load i32, i32* %24, align 4
  %26 = call i32 (i8*, ...) @printf(i8* getelementptr inbounds ([4 x i8], [4 x i8]* @.str.1, i64 0, i64 0), i32 %25)
  br label %27

27:                                               ; preds = %21
  %28 = load i32, i32* %2, align 4
  %29 = add nsw i32 %28, 1
  store i32 %29, i32* %2, align 4
  br label %18

30:                                               ; preds = %18
  %31 = load i32, i32* %2, align 4
  %32 = sext i32 %31 to i64
  %33 = getelementptr inbounds [6 x i32], [6 x i32]* %3, i64 0, i64 %32
  %34 = load i32, i32* %33, align 4
  %35 = call i32 (i8*, ...) @printf(i8* getelementptr inbounds ([3 x i8], [3 x i8]* @.str, i64 0, i64 0), i32 %34)
  ret void
}

declare dso_local i32 @__isoc99_scanf(i8*, ...) #3

declare dso_local i32 @printf(i8*, ...) #3


!llvm.module.flags = !{!0}
!llvm.ident = !{!1}

!0 = !{i32 1, !"wchar_size", i32 4}
!1 = !{!"clang version 10.0.0-4ubuntu1 "}
